; Function Attrs: nounwind uwtable
define hidden void @file_magwarn(ptr noundef readnone captures(none) %0, ptr noundef %1, ...) local_unnamed_addr #4 {
  %3 = alloca ptr, align 8
  %4 = alloca [1 x %struct.__va_list_tag], align 16
  call void @llvm.lifetime.start.p0(i64 24, ptr nonnull %4) #13
  call void @llvm.va_start.p0(ptr nonnull %4)
  call void @llvm.lifetime.start.p0(i64 8, ptr nonnull %3) #13
  store ptr null, ptr %3, align 8, !tbaa !20
  %5 = call i32 @vasprintf(ptr noundef nonnull %3, ptr noundef %1, ptr noundef nonnull %4) #13
  %6 = icmp sgt i32 %5, -1
  %7 = load ptr, ptr %3, align 8
  %8 = icmp ne ptr %7, null
  %or.cond.i = select i1 %6, i1 %8, i1 false
  br i1 %or.cond.i, label %9, label %file_vmagwarn.exit

9:                                                ; preds = %2
  call void (ptr, i32, ptr, ...) @php_error_docref(ptr noundef null, i32 noundef 2, ptr noundef nonnull @.str.17, ptr noundef nonnull %7) #13
  %10 = load ptr, ptr %3, align 8, !tbaa !20
  call void @free(ptr noundef %10) #13
  br label %file_vmagwarn.exit

file_vmagwarn.exit:                               ; preds = %2, %9
  call void @llvm.lifetime.end.p0(i64 8, ptr nonnull %3) #13
  call void @llvm.va_end.p0(ptr nonnull %4)
  call void @llvm.lifetime.end.p0(i64 24, ptr nonnull %4) #13
  ret void
}